#include <math.h>
#include <stdio.h>
#include <stdlib.h>
#include <string.h>


int main()
{
	int m,i,j,a[100];
	double b[100],sum,s;
	m=0;
	scanf("%d",&m);
	i=0;
	for (i=0;i<m;i++)
	{
		scanf("%d",&a[i]);
		b[1]=1;
		b[2]=2;
		sum=0;
		for (j=1;j<=a[i];j++)
		{
			s=b[j+1]/b[j];
			sum=sum+s;
			b[j+2]=b[j]+b[j+1];
		}
	printf("%.3lf\n",sum);
	}
	return 0;
}
