; ModuleID = '29/1854.c'
source_filename = "29/1854.c"
target datalayout = "e-m:e-p270:32:32-p271:32:32-p272:64:64-i64:64-f80:128-n8:16:32:64-S128"
target triple = "x86_64-pc-linux-gnu"

@.str = private unnamed_addr constant [3 x i8] c"%d\00", align 1
@.str.1 = private unnamed_addr constant [7 x i8] c"%.3lf\0A\00", align 1

; Function Attrs: noinline nounwind uwtable
define dso_local i32 @main() #0 {
  %1 = alloca i32, align 4
  %2 = alloca i32, align 4
  %3 = alloca i32, align 4
  %4 = alloca i32, align 4
  %5 = alloca [100 x i32], align 16
  %6 = alloca [100 x double], align 16
  %7 = alloca double, align 8
  %8 = alloca double, align 8
  store i32 0, i32* %1, align 4
  store i32 0, i32* %2, align 4
  %9 = call i32 (i8*, ...) @__isoc99_scanf(i8* getelementptr inbounds ([3 x i8], [3 x i8]* @.str, i64 0, i64 0), i32* %2)
  store i32 0, i32* %3, align 4
  store i32 0, i32* %3, align 4
  br label %10

10:                                               ; preds = %62, %0
  %11 = load i32, i32* %3, align 4
  %12 = load i32, i32* %2, align 4
  %13 = icmp slt i32 %11, %12
  br i1 %13, label %14, label %65

14:                                               ; preds = %10
  %15 = load i32, i32* %3, align 4
  %16 = sext i32 %15 to i64
  %17 = getelementptr inbounds [100 x i32], [100 x i32]* %5, i64 0, i64 %16
  %18 = call i32 (i8*, ...) @__isoc99_scanf(i8* getelementptr inbounds ([3 x i8], [3 x i8]* @.str, i64 0, i64 0), i32* %17)
  %19 = getelementptr inbounds [100 x double], [100 x double]* %6, i64 0, i64 1
  store double 1.000000e+00, double* %19, align 8
  %20 = getelementptr inbounds [100 x double], [100 x double]* %6, i64 0, i64 2
  store double 2.000000e+00, double* %20, align 16
  store double 0.000000e+00, double* %7, align 8
  store i32 1, i32* %4, align 4
  br label %21

21:                                               ; preds = %56, %14
  %22 = load i32, i32* %4, align 4
  %23 = load i32, i32* %3, align 4
  %24 = sext i32 %23 to i64
  %25 = getelementptr inbounds [100 x i32], [100 x i32]* %5, i64 0, i64 %24
  %26 = load i32, i32* %25, align 4
  %27 = icmp sle i32 %22, %26
  br i1 %27, label %28, label %59

28:                                               ; preds = %21
  %29 = load i32, i32* %4, align 4
  %30 = add nsw i32 %29, 1
  %31 = sext i32 %30 to i64
  %32 = getelementptr inbounds [100 x double], [100 x double]* %6, i64 0, i64 %31
  %33 = load double, double* %32, align 8
  %34 = load i32, i32* %4, align 4
  %35 = sext i32 %34 to i64
  %36 = getelementptr inbounds [100 x double], [100 x double]* %6, i64 0, i64 %35
  %37 = load double, double* %36, align 8
  %38 = fdiv double %33, %37
  store double %38, double* %8, align 8
  %39 = load double, double* %7, align 8
  %40 = load double, double* %8, align 8
  %41 = fadd double %39, %40
  store double %41, double* %7, align 8
  %42 = load i32, i32* %4, align 4
  %43 = sext i32 %42 to i64
  %44 = getelementptr inbounds [100 x double], [100 x double]* %6, i64 0, i64 %43
  %45 = load double, double* %44, align 8
  %46 = load i32, i32* %4, align 4
  %47 = add nsw i32 %46, 1
  %48 = sext i32 %47 to i64
  %49 = getelementptr inbounds [100 x double], [100 x double]* %6, i64 0, i64 %48
  %50 = load double, double* %49, align 8
  %51 = fadd double %45, %50
  %52 = load i32, i32* %4, align 4
  %53 = add nsw i32 %52, 2
  %54 = sext i32 %53 to i64
  %55 = getelementptr inbounds [100 x double], [100 x double]* %6, i64 0, i64 %54
  store double %51, double* %55, align 8
  br label %56

56:                                               ; preds = %28
  %57 = load i32, i32* %4, align 4
  %58 = add nsw i32 %57, 1
  store i32 %58, i32* %4, align 4
  br label %21

59:                                               ; preds = %21
  %60 = load double, double* %7, align 8
  %61 = call i32 (i8*, ...) @printf(i8* getelementptr inbounds ([7 x i8], [7 x i8]* @.str.1, i64 0, i64 0), double %60)
  br label %62

62:                                               ; preds = %59
  %63 = load i32, i32* %3, align 4
  %64 = add nsw i32 %63, 1
  store i32 %64, i32* %3, align 4
  br label %10

65:                                               ; preds = %10
  ret i32 0
}

declare dso_local i32 @__isoc99_scanf(i8*, ...) #1

declare dso_local i32 @printf(i8*, ...) #1


!llvm.module.flags = !{!0}
!llvm.ident = !{!1}

!0 = !{i32 1, !"wchar_size", i32 4}
!1 = !{!"clang version 10.0.0-4ubuntu1 "}
